; Function Attrs: mustprogress nounwind uwtable
define void @_ZN3gmx28TrajectoryAnalysisModuleDataD2Ev(ptr noundef nonnull align 8 captures(none) dereferenceable(16) initializes((0, 8)) %0) unnamed_addr #6 align 2 personality ptr @__gxx_personality_v0 {
  store ptr getelementptr inbounds nuw inrange(-16, 24) (i8, ptr @_ZTVN3gmx28TrajectoryAnalysisModuleDataE, i64 16), ptr %0, align 8, !tbaa !4
  %2 = getelementptr inbounds nuw i8, ptr %0, i64 8
  %3 = load ptr, ptr %2, align 8, !tbaa !7
  %.not.i = icmp eq ptr %3, null
  br i1 %.not.i, label %_ZNSt10unique_ptrIN3gmx28TrajectoryAnalysisModuleData4ImplESt14default_deleteIS2_EED2Ev.exit, label %4

4:                                                ; preds = %1
  %5 = getelementptr inbounds nuw i8, ptr %3, i64 16
  %6 = load ptr, ptr %5, align 8, !tbaa !19
  invoke void @_ZNSt8_Rb_treeIPKN3gmx12AnalysisDataESt4pairIKS3_NS0_18AnalysisDataHandleEESt10_Select1stIS7_ESt4lessIS3_ESaIS7_EE8_M_eraseEPSt13_Rb_tree_nodeIS7_E(ptr noundef nonnull align 8 dereferenceable(56) %3, ptr noundef %6)
          to label %_ZNKSt14default_deleteIN3gmx28TrajectoryAnalysisModuleData4ImplEEclEPS2_.exit.i unwind label %7

7:                                                ; preds = %4
  %8 = landingpad { ptr, i32 }
          catch ptr null
  %9 = extractvalue { ptr, i32 } %8, 0
  tail call void @__clang_call_terminate(ptr %9) #26
  unreachable

_ZNKSt14default_deleteIN3gmx28TrajectoryAnalysisModuleData4ImplEEclEPS2_.exit.i: ; preds = %4
  tail call void @_ZdlPvm(ptr noundef nonnull %3, i64 noundef 56) #28
  br label %_ZNSt10unique_ptrIN3gmx28TrajectoryAnalysisModuleData4ImplESt14default_deleteIS2_EED2Ev.exit

_ZNSt10unique_ptrIN3gmx28TrajectoryAnalysisModuleData4ImplESt14default_deleteIS2_EED2Ev.exit: ; preds = %1, %_ZNKSt14default_deleteIN3gmx28TrajectoryAnalysisModuleData4ImplEEclEPS2_.exit.i
  store ptr null, ptr %2, align 8, !tbaa !7
  ret void
}